target datalayout = "e-m:e-p270:32:32-p271:32:32-p272:64:64-i64:64-i128:128-f80:128-n8:16:32:64-S128"
target triple = "x86_64-pc-linux-gnu"

; Function Attrs: nounwind uwtable
define hidden zeroext i1 @SDL_InitHaptics() #0 {
  %1 = alloca i1, align 1
  %2 = call zeroext i1 @SDL_SYS_HapticInit()
  br i1 %2, label %4, label %3

3:                                                ; preds = %0
  store i1 false, ptr %1, align 1
  br label %8

4:                                                ; preds = %0
  %5 = call zeroext i1 @SDL_HIDAPI_HapticInit()
  br i1 %5, label %7, label %6

6:                                                ; preds = %4
  call void @SDL_SYS_HapticQuit()
  store i1 false, ptr %1, align 1
  br label %8

7:                                                ; preds = %4
  store i1 true, ptr %1, align 1
  br label %8

8:                                                ; preds = %7, %6, %3
  %9 = load i1, ptr %1, align 1
  ret i1 %9
}