; Function Attrs: nounwind uwtable
define hidden noundef zeroext i1 @SDL_InitHaptics() local_unnamed_addr #0 {
  %1 = tail call zeroext i1 @SDL_SYS_HapticInit() #9
  br i1 %1, label %2, label %5

2:                                                ; preds = %0
  %3 = tail call zeroext i1 @SDL_HIDAPI_HapticInit() #9
  br i1 %3, label %5, label %4

4:                                                ; preds = %2
  tail call void @SDL_SYS_HapticQuit() #9
  br label %5

5:                                                ; preds = %2, %0, %4
  %.0 = phi i1 [ false, %4 ], [ false, %0 ], [ true, %2 ]
  ret i1 %.0
}